#include <math.h>
#include <stdio.h>
#include <stdlib.h>
#include <string.h>

int f(int n,int k){
   if(n<k)return 0;
   int i,s=1;
   for(i=k;i<n;i++){
     if(n%i==0)s+=f(n/i,i);
     }
   return s;
}
int main(){
    int m,n,i,ans,s;
    scanf("%d",&m);
    while(m--){
       scanf("%d",&n);
       printf("%d\n",f(n,2)); 
       }
    return 0;
}